; ModuleID = 'source-C-CXX/16/1486.c'
source_filename = "source-C-CXX/16/1486.c"
target datalayout = "e-m:e-p270:32:32-p271:32:32-p272:64:64-i64:64-f80:128-n8:16:32:64-S128"
target triple = "x86_64-pc-linux-gnu"

@.str = private unnamed_addr constant [3 x i8] c"%s\00", align 1

; Function Attrs: nofree nounwind sspstrong uwtable
define dso_local i32 @main() local_unnamed_addr #0 {
  %1 = alloca [101 x i8], align 16
  %2 = alloca [101 x i8], align 16
  %3 = getelementptr inbounds [101 x i8], [101 x i8]* %1, i64 0, i64 0
  call void @llvm.lifetime.start.p0i8(i64 101, i8* nonnull %3) #6
  call void @llvm.memset.p0i8.i64(i8* noundef nonnull align 16 dereferenceable(101) %3, i8 0, i64 101, i1 false)
  %4 = getelementptr inbounds [101 x i8], [101 x i8]* %2, i64 0, i64 0
  call void @llvm.lifetime.start.p0i8(i64 101, i8* nonnull %4) #6
  call void @llvm.memset.p0i8.i64(i8* noundef nonnull align 16 dereferenceable(101) %4, i8 0, i64 101, i1 false)
  %5 = call i32 (i8*, ...) @__isoc99_scanf(i8* getelementptr inbounds ([3 x i8], [3 x i8]* @.str, i64 0, i64 0), i8* nonnull %3)
  %6 = icmp eq i32 %5, -1
  br i1 %6, label %40, label %7

7:                                                ; preds = %0, %35
  %8 = call i8* @strcpy(i8* noundef nonnull %4, i8* noundef nonnull %3) #6
  br label %9

9:                                                ; preds = %15, %7
  %10 = phi i64 [ %17, %15 ], [ 0, %7 ]
  %11 = getelementptr inbounds [101 x i8], [101 x i8]* %1, i64 0, i64 %10
  %12 = load i8, i8* %11, align 1, !tbaa !5
  switch i8 %12, label %14 [
    i8 0, label %18
    i8 40, label %15
    i8 41, label %13
  ]

13:                                               ; preds = %9
  br label %15

14:                                               ; preds = %9
  br label %15

15:                                               ; preds = %9, %14, %13
  %16 = phi i8 [ 32, %14 ], [ 63, %13 ], [ 36, %9 ]
  store i8 %16, i8* %11, align 1, !tbaa !5
  %17 = add nuw i64 %10, 1
  br label %9, !llvm.loop !8

18:                                               ; preds = %9, %33
  %19 = phi i64 [ %34, %33 ], [ 0, %9 ]
  %20 = getelementptr inbounds [101 x i8], [101 x i8]* %1, i64 0, i64 %19
  %21 = load i8, i8* %20, align 1, !tbaa !5
  switch i8 %21, label %33 [
    i8 0, label %35
    i8 63, label %22
  ]

22:                                               ; preds = %18, %26
  %23 = phi i64 [ %24, %26 ], [ %19, %18 ]
  %24 = add nsw i64 %23, -1
  %25 = icmp sgt i64 %23, 0
  br i1 %25, label %26, label %33

26:                                               ; preds = %22
  %27 = getelementptr inbounds [101 x i8], [101 x i8]* %1, i64 0, i64 %24
  %28 = load i8, i8* %27, align 1, !tbaa !5
  %29 = icmp eq i8 %28, 36
  br i1 %29, label %30, label %22, !llvm.loop !10

30:                                               ; preds = %26
  %31 = and i64 %24, 4294967295
  %32 = getelementptr inbounds [101 x i8], [101 x i8]* %1, i64 0, i64 %31
  store i8 32, i8* %32, align 1, !tbaa !5
  store i8 32, i8* %20, align 1, !tbaa !5
  br label %33

33:                                               ; preds = %22, %18, %30
  %34 = add nuw i64 %19, 1
  br label %18, !llvm.loop !11

35:                                               ; preds = %18
  %36 = call i32 @puts(i8* nonnull %4)
  %37 = call i32 @puts(i8* nonnull %3)
  %38 = call i32 (i8*, ...) @__isoc99_scanf(i8* getelementptr inbounds ([3 x i8], [3 x i8]* @.str, i64 0, i64 0), i8* nonnull %3)
  %39 = icmp eq i32 %38, -1
  br i1 %39, label %40, label %7, !llvm.loop !12

40:                                               ; preds = %35, %0
  call void @llvm.lifetime.end.p0i8(i64 101, i8* nonnull %4) #6
  call void @llvm.lifetime.end.p0i8(i64 101, i8* nonnull %3) #6
  ret i32 0
}

; Function Attrs: argmemonly mustprogress nofree nosync nounwind willreturn
declare void @llvm.lifetime.start.p0i8(i64 immarg, i8* nocapture) #1

; Function Attrs: argmemonly mustprogress nofree nounwind willreturn writeonly
declare void @llvm.memset.p0i8.i64(i8* nocapture writeonly, i8, i64, i1 immarg) #2

; Function Attrs: nofree nounwind
declare noundef i32 @__isoc99_scanf(i8* nocapture noundef readonly, ...) local_unnamed_addr #3

; Function Attrs: argmemonly mustprogress nofree nounwind willreturn
declare i8* @strcpy(i8* noalias returned writeonly, i8* noalias nocapture readonly) local_unnamed_addr #4

; Function Attrs: argmemonly mustprogress nofree nosync nounwind willreturn
declare void @llvm.lifetime.end.p0i8(i64 immarg, i8* nocapture) #1

; Function Attrs: nofree nounwind
declare noundef i32 @puts(i8* nocapture noundef readonly) local_unnamed_addr #5


!llvm.module.flags = !{!0, !1, !2, !3}
!llvm.ident = !{!4}

!0 = !{i32 1, !"wchar_size", i32 4}
!1 = !{i32 7, !"PIC Level", i32 2}
!2 = !{i32 7, !"PIE Level", i32 2}
!3 = !{i32 7, !"uwtable", i32 1}
!4 = !{!"clang version 13.0.0"}
!5 = !{!6, !6, i64 0}
!6 = !{!"omnipotent char", !7, i64 0}
!7 = !{!"Simple C/C++ TBAA"}
!8 = distinct !{!8, !9}
!9 = !{!"llvm.loop.mustprogress"}
!10 = distinct !{!10, !9}
!11 = distinct !{!11, !9}
!12 = distinct !{!12, !9}
